; Function Attrs: mustprogress null_pointer_is_valid sspstrong uwtable
define void @_ZN12ProfileModel17activeProfileNameEv(ptr dead_on_unwind noalias writable sret(%class.QString) align 8 %0) local_unnamed_addr #0 align 2 personality ptr @__gxx_personality_v0 {
  %2 = alloca %class.ProfileModel, align 8
  %3 = alloca %class.QModelIndex, align 8
  %4 = alloca %class.QVariant, align 8
  call void @llvm.lifetime.start.p0(i64 104, ptr nonnull %2) #26
  call void @_ZN12ProfileModelC1EP7QObject(ptr noundef nonnull align 8 dereferenceable_or_null(104) %2, ptr noundef null)
  call void @llvm.lifetime.start.p0(i64 24, ptr nonnull %3) #26
  invoke void @_ZNK12ProfileModel13activeProfileEv(ptr dead_on_unwind nonnull writable sret(%class.QModelIndex) align 8 %3, ptr noundef nonnull align 8 dereferenceable_or_null(104) %2)
          to label %5 unwind label %15

5:                                                ; preds = %1
  call void @llvm.lifetime.start.p0(i64 32, ptr nonnull %4) #26
  call void @llvm.experimental.noalias.scope.decl(metadata !250)
  %6 = getelementptr inbounds nuw i8, ptr %3, i64 16
  %7 = load ptr, ptr %6, align 8, !noalias !250
  %.not.i = icmp eq ptr %7, null
  br i1 %.not.i, label %12, label %8

8:                                                ; preds = %5
  %9 = load ptr, ptr %7, align 8, !noalias !250
  %10 = getelementptr inbounds nuw i8, ptr %9, i64 144
  %11 = load ptr, ptr %10, align 8, !noalias !250
  invoke void %11(ptr dead_on_unwind nonnull writable sret(%class.QVariant) align 8 %4, ptr noundef nonnull align 8 dereferenceable_or_null(16) %7, ptr noundef nonnull align 8 dereferenceable(24) dereferenceable_or_null(24) %3, i32 noundef 0)
          to label %_ZNK11QModelIndex4dataEi.exit unwind label %17

12:                                               ; preds = %5
  call void @llvm.memset.p0.i64(ptr noundef nonnull align 8 dereferenceable(32) %4, i8 0, i64 24, i1 false), !alias.scope !250
  %13 = getelementptr inbounds nuw i8, ptr %4, i64 24
  store i64 2, ptr %13, align 8, !alias.scope !250
  br label %_ZNK11QModelIndex4dataEi.exit

_ZNK11QModelIndex4dataEi.exit:                    ; preds = %12, %8
  invoke void @_ZNK8QVariant8toStringEv(ptr dead_on_unwind writable sret(%class.QString) align 8 %0, ptr noundef nonnull align 8 dereferenceable_or_null(32) %4)
          to label %14 unwind label %19

14:                                               ; preds = %_ZNK11QModelIndex4dataEi.exit
  call void @_ZN8QVariantD1Ev(ptr noundef nonnull align 8 dereferenceable_or_null(32) %4) #26
  call void @llvm.lifetime.end.p0(i64 32, ptr nonnull %4) #26
  call void @llvm.lifetime.end.p0(i64 24, ptr nonnull %3) #26
  call void @_ZN12ProfileModelD2Ev(ptr noundef nonnull align 8 dereferenceable_or_null(104) %2) #26
  call void @llvm.lifetime.end.p0(i64 104, ptr nonnull %2) #26
  ret void

15:                                               ; preds = %1
  %16 = landingpad { ptr, i32 }
          cleanup
  br label %22

17:                                               ; preds = %8
  %18 = landingpad { ptr, i32 }
          cleanup
  br label %21

19:                                               ; preds = %_ZNK11QModelIndex4dataEi.exit
  %20 = landingpad { ptr, i32 }
          cleanup
  call void @_ZN8QVariantD1Ev(ptr noundef nonnull align 8 dereferenceable_or_null(32) %4) #26
  br label %21

21:                                               ; preds = %19, %17
  %.pn = phi { ptr, i32 } [ %20, %19 ], [ %18, %17 ]
  call void @llvm.lifetime.end.p0(i64 32, ptr nonnull %4) #26
  br label %22

22:                                               ; preds = %21, %15
  %.pn.pn = phi { ptr, i32 } [ %.pn, %21 ], [ %16, %15 ]
  call void @llvm.lifetime.end.p0(i64 24, ptr nonnull %3) #26
  call void @_ZN12ProfileModelD2Ev(ptr noundef nonnull align 8 dereferenceable_or_null(104) %2) #26
  call void @llvm.lifetime.end.p0(i64 104, ptr nonnull %2) #26
  resume { ptr, i32 } %.pn.pn
}